target datalayout = "e-m:e-p270:32:32-p271:32:32-p272:64:64-i64:64-i128:128-f80:128-n8:16:32:64-S128"
target triple = "x86_64-unknown-linux-gnu"

%struct.tsd_s = type { i8, i8, i64, i64, i64, i64, i64, i64, i64, i64, i64, i64, i64, i64, ptr, i64, i64, i64, ptr, ptr, %struct.ticker_geom_s, i8, %struct.tsd_binshards_s, %struct.tsd_link_t, i8, %struct.peak_s, %struct.activity_callback_thunk_s, %struct.tcache_slow_s, %struct.rtree_ctx_s, %struct.atomic_u8_t, i64, i64, i64, i64, %struct.tcache_s, %struct.witness_tsd_s }
%struct.ticker_geom_s = type { i32, i32 }
%struct.tsd_binshards_s = type { [39 x i8] }
%struct.tsd_link_t = type { ptr, ptr }
%struct.peak_s = type { i64, i64 }
%struct.activity_callback_thunk_s = type { ptr, ptr }
%struct.tcache_slow_s = type { %struct.anon.3, %struct.cache_bin_array_descriptor_s, ptr, i32, [39 x i8], [39 x i8], [39 x i8], ptr, ptr }
%struct.anon.3 = type { ptr, ptr }
%struct.cache_bin_array_descriptor_s = type { %struct.anon.4, ptr }
%struct.anon.4 = type { ptr, ptr }
%struct.rtree_ctx_s = type { [16 x %struct.rtree_ctx_cache_elm_s], [8 x %struct.rtree_ctx_cache_elm_s] }
%struct.rtree_ctx_cache_elm_s = type { i64, ptr }
%struct.atomic_u8_t = type { i8 }
%struct.tcache_s = type { ptr, [76 x %struct.cache_bin_s] }
%struct.cache_bin_s = type { ptr, %struct.cache_bin_stats_s, i16, i16, i16 }
%struct.cache_bin_stats_s = type { i64 }
%struct.witness_tsd_s = type { %struct.witness_list_t, i8 }
%struct.witness_list_t = type { ptr }

; Function Attrs: nounwind uwtable
define internal i32 @experimental_thread_activity_callback_ctl(ptr noundef %tsd, ptr noundef %mib, i64 noundef %miblen, ptr noundef %oldp, ptr noundef %oldlenp, ptr noundef %newp, i64 noundef %newlen) #0 {
entry:
  %tsd.addr.i26 = alloca ptr, align 8
  %tsd.addr.i25 = alloca ptr, align 8
  %tsd.addr.i.i20 = alloca ptr, align 8
  %tsd.addr.i21 = alloca ptr, align 8
  %state.i22 = alloca i8, align 1
  %tsd.addr.i.i = alloca ptr, align 8
  %tsd.addr.i19 = alloca ptr, align 8
  %state.i = alloca i8, align 1
  %val.i = alloca %struct.activity_callback_thunk_s, align 8
  %tsd.addr.i17 = alloca ptr, align 8
  %retval.i = alloca %struct.activity_callback_thunk_s, align 8
  %tsd.addr.i = alloca ptr, align 8
  %tsd.addr = alloca ptr, align 8
  %mib.addr = alloca ptr, align 8
  %miblen.addr = alloca i64, align 8
  %oldp.addr = alloca ptr, align 8
  %oldlenp.addr = alloca ptr, align 8
  %newp.addr = alloca ptr, align 8
  %newlen.addr = alloca i64, align 8
  %ret = alloca i32, align 4
  %t_old = alloca %struct.activity_callback_thunk_s, align 8
  %copylen = alloca i64, align 8
  %t_new = alloca %struct.activity_callback_thunk_s, align 8
  store ptr %tsd, ptr %tsd.addr, align 8
  store ptr %mib, ptr %mib.addr, align 8
  store i64 %miblen, ptr %miblen.addr, align 8
  store ptr %oldp, ptr %oldp.addr, align 8
  store ptr %oldlenp, ptr %oldlenp.addr, align 8
  store ptr %newp, ptr %newp.addr, align 8
  store i64 %newlen, ptr %newlen.addr, align 8
  %0 = load ptr, ptr %tsd.addr, align 8
  store ptr %0, ptr %tsd.addr.i, align 8
  %1 = load ptr, ptr %tsd.addr.i, align 8
  store ptr %1, ptr %tsd.addr.i21, align 8
  %2 = load ptr, ptr %tsd.addr.i21, align 8
  store ptr %2, ptr %tsd.addr.i.i20, align 8
  %3 = load ptr, ptr %tsd.addr.i.i20, align 8
  %state.i.i23 = getelementptr inbounds %struct.tsd_s, ptr %3, i32 0, i32 29
  %4 = load i8, ptr %state.i.i23, align 8
  store i8 %4, ptr %state.i22, align 1
  %5 = load ptr, ptr %tsd.addr.i21, align 8
  store ptr %5, ptr %tsd.addr.i25, align 8
  %6 = load ptr, ptr %tsd.addr.i25, align 8
  %cant_access_tsd_items_directly_use_a_getter_or_setter_activity_callback_thunk.i = getelementptr inbounds %struct.tsd_s, ptr %6, i32 0, i32 26
  call void @llvm.memcpy.p0.p0.i64(ptr align 8 %retval.i, ptr align 8 %cant_access_tsd_items_directly_use_a_getter_or_setter_activity_callback_thunk.i, i64 16, i1 false)
  %7 = load { ptr, ptr }, ptr %retval.i, align 8
  %8 = getelementptr inbounds { ptr, ptr }, ptr %t_old, i32 0, i32 0
  %9 = extractvalue { ptr, ptr } %7, 0
  store ptr %9, ptr %8, align 8
  %10 = getelementptr inbounds { ptr, ptr }, ptr %t_old, i32 0, i32 1
  %11 = extractvalue { ptr, ptr } %7, 1
  store ptr %11, ptr %10, align 8
  br label %do.body

do.body:                                          ; preds = %entry
  %12 = load ptr, ptr %oldp.addr, align 8
  %cmp = icmp ne ptr %12, null
  br i1 %cmp, label %land.lhs.true, label %if.end5

land.lhs.true:                                    ; preds = %do.body
  %13 = load ptr, ptr %oldlenp.addr, align 8
  %cmp1 = icmp ne ptr %13, null
  br i1 %cmp1, label %if.then, label %if.end5

if.then:                                          ; preds = %land.lhs.true
  %14 = load ptr, ptr %oldlenp.addr, align 8
  %15 = load i64, ptr %14, align 8
  %cmp2 = icmp ne i64 %15, 16
  br i1 %cmp2, label %if.then3, label %if.end

if.then3:                                         ; preds = %if.then
  %16 = load ptr, ptr %oldlenp.addr, align 8
  %17 = load i64, ptr %16, align 8
  %cmp4 = icmp ule i64 16, %17
  br i1 %cmp4, label %cond.true, label %cond.false

cond.true:                                        ; preds = %if.then3
  br label %cond.end

cond.false:                                       ; preds = %if.then3
  %18 = load ptr, ptr %oldlenp.addr, align 8
  %19 = load i64, ptr %18, align 8
  br label %cond.end

cond.end:                                         ; preds = %cond.false, %cond.true
  %cond = phi i64 [ 16, %cond.true ], [ %19, %cond.false ]
  store i64 %cond, ptr %copylen, align 8
  %20 = load ptr, ptr %oldp.addr, align 8
  %21 = load i64, ptr %copylen, align 8
  call void @llvm.memcpy.p0.p0.i64(ptr align 1 %20, ptr align 1 %t_old, i64 %21, i1 false)
  %22 = load i64, ptr %copylen, align 8
  %23 = load ptr, ptr %oldlenp.addr, align 8
  store i64 %22, ptr %23, align 8
  store i32 22, ptr %ret, align 4
  br label %label_return

if.end:                                           ; preds = %if.then
  %24 = load ptr, ptr %oldp.addr, align 8
  call void @llvm.memcpy.p0.p0.i64(ptr align 8 %24, ptr align 8 %t_old, i64 16, i1 false)
  br label %if.end5

if.end5:                                          ; preds = %if.end, %land.lhs.true, %do.body
  br label %do.end

do.end:                                           ; preds = %if.end5
  %25 = load ptr, ptr %newp.addr, align 8
  %cmp6 = icmp ne ptr %25, null
  br i1 %cmp6, label %if.then7, label %if.end16

if.then7:                                         ; preds = %do.end
  call void @llvm.memset.p0.i64(ptr align 8 %t_new, i8 0, i64 16, i1 false)
  br label %do.body8

do.body8:                                         ; preds = %if.then7
  %26 = load ptr, ptr %newp.addr, align 8
  %cmp9 = icmp ne ptr %26, null
  br i1 %cmp9, label %if.then10, label %if.end14

if.then10:                                        ; preds = %do.body8
  %27 = load i64, ptr %newlen.addr, align 8
  %cmp11 = icmp ne i64 %27, 16
  br i1 %cmp11, label %if.then12, label %if.end13

if.then12:                                        ; preds = %if.then10
  store i32 22, ptr %ret, align 4
  br label %label_return

if.end13:                                         ; preds = %if.then10
  %28 = load ptr, ptr %newp.addr, align 8
  call void @llvm.memcpy.p0.p0.i64(ptr align 8 %t_new, ptr align 8 %28, i64 16, i1 false)
  br label %if.end14

if.end14:                                         ; preds = %if.end13, %do.body8
  br label %do.end15

do.end15:                                         ; preds = %if.end14
  %29 = load ptr, ptr %tsd.addr, align 8
  %30 = getelementptr inbounds { ptr, ptr }, ptr %t_new, i32 0, i32 0
  %31 = load ptr, ptr %30, align 8
  %32 = getelementptr inbounds { ptr, ptr }, ptr %t_new, i32 0, i32 1
  %33 = load ptr, ptr %32, align 8
  store ptr %31, ptr %val.i, align 8
  %34 = getelementptr inbounds { ptr, ptr }, ptr %val.i, i32 0, i32 1
  store ptr %33, ptr %34, align 8
  store ptr %29, ptr %tsd.addr.i17, align 8
  %35 = load ptr, ptr %tsd.addr.i17, align 8
  store ptr %35, ptr %tsd.addr.i19, align 8
  %36 = load ptr, ptr %tsd.addr.i19, align 8
  store ptr %36, ptr %tsd.addr.i.i, align 8
  %37 = load ptr, ptr %tsd.addr.i.i, align 8
  %state.i.i = getelementptr inbounds %struct.tsd_s, ptr %37, i32 0, i32 29
  %38 = load i8, ptr %state.i.i, align 8
  store i8 %38, ptr %state.i, align 1
  %39 = load ptr, ptr %tsd.addr.i19, align 8
  store ptr %39, ptr %tsd.addr.i26, align 8
  %40 = load ptr, ptr %tsd.addr.i26, align 8
  %cant_access_tsd_items_directly_use_a_getter_or_setter_activity_callback_thunk.i27 = getelementptr inbounds %struct.tsd_s, ptr %40, i32 0, i32 26
  call void @llvm.memcpy.p0.p0.i64(ptr align 8 %cant_access_tsd_items_directly_use_a_getter_or_setter_activity_callback_thunk.i27, ptr align 8 %val.i, i64 16, i1 false)
  br label %if.end16

if.end16:                                         ; preds = %do.end15, %do.end
  store i32 0, ptr %ret, align 4
  br label %label_return

label_return:                                     ; preds = %if.end16, %if.then12, %cond.end
  %41 = load i32, ptr %ret, align 4
  ret i32 %41
}